target datalayout = "e-m:e-p270:32:32-p271:32:32-p272:64:64-i64:64-i128:128-f80:128-n8:16:32:64-S128"
target triple = "x86_64-pc-linux-gnu"

%struct.H5C_t = type { i8, ptr, ptr, i32, ptr, i64, i64, ptr, i8, ptr, i8, i8, i32, i64, [6 x i32], [6 x i64], i64, [6 x i64], i64, [6 x i64], [65536 x ptr], i32, i64, ptr, ptr, i64, ptr, ptr, i8, i8, i32, i64, [6 x i32], [6 x i64], ptr, i32, ptr, i8, i32, i32, i64, ptr, ptr, i32, i64, ptr, ptr, i32, i64, ptr, ptr, i8, i8, i64, i8, i8, i8, i8, i8, i8, %struct.H5C_auto_size_ctl_t, i32, [10 x i8], [11 x i32], i32, i32, i32, [10 x %struct.H5C_cache_entry_t], i64, i64, %struct.H5C_cache_image_ctl_t, i8, i8, i8, i8, i64, i64, i64, i64, i64, i64, i64, i32, ptr, ptr, i8, i8, [32 x i8] }
%struct.H5C_auto_size_ctl_t = type { i32, ptr, i8, i64, double, i64, i64, i64, i32, double, double, i8, i64, i32, double, double, i32, double, double, i8, i64, i32, i8, double }
%struct.H5C_cache_entry_t = type { ptr, i64, i64, ptr, i8, ptr, i8, i8, i8, i8, i32, i8, i8, i8, i8, i8, i32, ptr, i32, i32, i32, i32, i32, i8, i8, ptr, ptr, ptr, ptr, ptr, ptr, i8, i32, i8, i64, ptr, i64, i64, i32, i8, i32, i32, i8, ptr, ptr, ptr }
%struct.H5C_cache_image_ctl_t = type { i32, i8, i8, i32, i32 }
%struct.H5C_log_info_t = type { i8, i8, ptr, ptr }
%struct.H5C_log_class_t = type { ptr, ptr, ptr, ptr, ptr, ptr, ptr, ptr, ptr, ptr, ptr, ptr, ptr, ptr, ptr, ptr, ptr, ptr, ptr, ptr, ptr, ptr, ptr, ptr, ptr, ptr }

@.str = private unnamed_addr constant [100 x i8] c"generated/home/dtcxzyw/WorkSpace/Projects/compilers/llvm-opt-benchmark/bench/hdf5/hdf5/src/H5Clog.c\00", align 1
@H5E_CACHE_g = external global i64, align 8
@H5E_LOGGING_g = external global i64, align 8
@__func__.H5C_log_write_destroy_fd_msg = private unnamed_addr constant [29 x i8] c"H5C_log_write_destroy_fd_msg\00", align 1
@.str.30 = private unnamed_addr constant [36 x i8] c"log-specific destroy fd call failed\00", align 1

; Function Attrs: nounwind uwtable
define i32 @H5C_log_write_destroy_fd_msg(ptr noundef %0, ptr noundef %1, ptr noundef %2, i32 noundef %3) #0 {
  %5 = alloca ptr, align 8
  %6 = alloca ptr, align 8
  %7 = alloca ptr, align 8
  %8 = alloca i32, align 4
  %9 = alloca i32, align 4
  %10 = alloca i8, align 1
  store ptr %0, ptr %5, align 8
  store ptr %1, ptr %6, align 8
  store ptr %2, ptr %7, align 8
  store i32 %3, ptr %8, align 4
  store i32 0, ptr %9, align 4
  store i8 0, ptr %10, align 1
  %11 = load ptr, ptr %5, align 8
  %12 = getelementptr inbounds %struct.H5C_t, ptr %11, i32 0, i32 1
  %13 = load ptr, ptr %12, align 8
  %14 = getelementptr inbounds %struct.H5C_log_info_t, ptr %13, i32 0, i32 2
  %15 = load ptr, ptr %14, align 8
  %16 = getelementptr inbounds %struct.H5C_log_class_t, ptr %15, i32 0, i32 22
  %17 = load ptr, ptr %16, align 8
  %18 = icmp ne ptr %17, null
  br i1 %18, label %19, label %53

19:                                               ; preds = %4
  %20 = load ptr, ptr %5, align 8
  %21 = getelementptr inbounds %struct.H5C_t, ptr %20, i32 0, i32 1
  %22 = load ptr, ptr %21, align 8
  %23 = getelementptr inbounds %struct.H5C_log_info_t, ptr %22, i32 0, i32 2
  %24 = load ptr, ptr %23, align 8
  %25 = getelementptr inbounds %struct.H5C_log_class_t, ptr %24, i32 0, i32 22
  %26 = load ptr, ptr %25, align 8
  %27 = load ptr, ptr %5, align 8
  %28 = getelementptr inbounds %struct.H5C_t, ptr %27, i32 0, i32 1
  %29 = load ptr, ptr %28, align 8
  %30 = getelementptr inbounds %struct.H5C_log_info_t, ptr %29, i32 0, i32 3
  %31 = load ptr, ptr %30, align 8
  %32 = load ptr, ptr %6, align 8
  %33 = load ptr, ptr %7, align 8
  %34 = load i32, ptr %8, align 4
  %35 = call i32 %26(ptr noundef %31, ptr noundef %32, ptr noundef %33, i32 noundef %34)
  %36 = icmp slt i32 %35, 0
  br i1 %36, label %37, label %52

37:                                               ; preds = %19
  br label %38

38:                                               ; preds = %37
  br label %39

39:                                               ; preds = %38
  br label %40

40:                                               ; preds = %39
  %41 = load i64, ptr @H5E_CACHE_g, align 8
  %42 = load i64, ptr @H5E_LOGGING_g, align 8
  %43 = call i32 (ptr, ptr, i32, i64, i64, ptr, ...) @H5E_printf_stack(ptr noundef @.str, ptr noundef @__func__.H5C_log_write_destroy_fd_msg, i32 noundef 777, i64 noundef %41, i64 noundef %42, ptr noundef @.str.30)
  br label %44

44:                                               ; preds = %40
  store i8 1, ptr %10, align 1
  %45 = load i8, ptr %10, align 1
  %46 = trunc i8 %45 to i1
  %47 = zext i1 %46 to i8
  store i8 %47, ptr %10, align 1
  br label %48

48:                                               ; preds = %44
  br label %49

49:                                               ; preds = %48
  store i32 -1, ptr %9, align 4
  br label %54

50:                                               ; No predecessors!
  br label %51

51:                                               ; preds = %50
  br label %52

52:                                               ; preds = %51, %19
  br label %53

53:                                               ; preds = %52, %4
  br label %54

54:                                               ; preds = %53, %49
  %55 = load i32, ptr %9, align 4
  ret i32 %55
}